target datalayout = "e-m:e-p270:32:32-p271:32:32-p272:64:64-i64:64-i128:128-f80:128-n8:16:32:64-S128"
target triple = "x86_64-pc-linux-gnu"

%struct.anon = type { ptr, ptr, i32, i64, i64, i64, i64, i32, i32, [1024 x i8] }
%struct.redisServer = type { i32, i64, ptr, ptr, ptr, i32, i32, i32, i32, i32, ptr, ptr, ptr, ptr, ptr, i32, i32, i32, i32, i64, i32, i32, i32, i32, ptr, i32, i32, [41 x i8], i32, i64, i32, i32, i32, ptr, ptr, i32, i32, i64, ptr, ptr, ptr, ptr, [2 x i32], i32, i32, i32, i32, i32, i32, [16 x ptr], i32, ptr, ptr, i32, [8 x %struct.connListener], i32, %struct.connListener, ptr, ptr, ptr, ptr, ptr, ptr, ptr, ptr, ptr, ptr, i32, ptr, i32, ptr, [3 x %struct.pause_event], [256 x i8], ptr, i64, i32, i32, [128 x i32], i32, i32, i64, i32, i32, i32, i32, i32, i64, i64, i64, i64, i64, i64, i64, i64, i64, i64, double, i64, i64, i64, i64, i64, i64, i64, i64, i64, i64, i64, i64, i64, i64, i64, i64, i64, i64, i64, i64, i64, double, i64, i64, i64, i64, i64, ptr, i64, i64, i64, %struct.malloc_stats, i64, i64, i64, i64, i64, i64, i64, i64, i64, i64, i64, i64, double, [4 x i64], i64, i64, i64, i64, [128 x i64], [128 x i64], i64, i64, [7 x %struct.anon.6], i64, i64, i64, i64, i64, i64, [4 x %struct.durationStats], i32, i32, i32, i32, i32, i32, i32, i32, i32, i32, i32, i32, i64, i32, i32, i32, i32, i64, i64, i32, i32, i32, i32, i32, ptr, [3 x %struct.clientBufferLimitsConfig], i32, i32, i32, ptr, i32, i32, i32, i32, i32, i32, ptr, ptr, i32, i32, i64, i64, i64, i64, i64, i32, i32, ptr, i32, i32, i64, i64, i64, i64, i64, i32, i32, i64, i32, i32, i32, i32, i32, i32, i32, i32, ptr, i32, i64, i64, i64, i64, i32, ptr, i32, ptr, i32, i32, i32, i64, i64, i64, i64, i32, i32, i32, i32, i32, i32, ptr, i32, i32, ptr, i32, i32, i32, [2 x i32], i32, %struct.redisOpArray, i32, ptr, i32, ptr, i32, i32, i32, i32, i32, i32, i32, [41 x i8], [41 x i8], i64, i64, i64, i64, i32, i32, ptr, i64, i64, %struct.replDataBuf, i64, i64, i32, i32, i32, i32, i32, i32, i32, i32, i32, i64, ptr, i64, ptr, ptr, ptr, i32, i32, ptr, ptr, i32, i32, i32, i64, i64, i64, i64, ptr, ptr, i32, ptr, i64, i32, i32, i32, i64, i32, i32, i32, i32, ptr, i32, i32, [41 x i8], i64, i32, ptr, i32, i32, i64, i64, i32, i32, i32, i32, i32, i64, [3 x i32], i32, i32, i32, [10 x i32], ptr, ptr, i32, i64, ptr, ptr, i32, i32, i32, i32, i64, i64, i64, i64, i64, i64, i64, i64, i64, i64, i32, i32, i64, i64, i32, i64, i64, i64, i64, i64, ptr, ptr, i32, ptr, i32, i32, i32, i32, i64, i64, ptr, ptr, i32, i32, i32, i32, i32, ptr, ptr, ptr, i32, i32, i32, i32, i32, i32, i32, i64, i32, i32, i64, i32, i32, i32, i32, i32, i32, i32, i64, ptr, ptr, i64, ptr, i32, %struct.aclInfo, i32, i64, i32, i32, i32, %struct.redisTLSContextConfig, ptr, ptr, ptr, ptr, ptr, i64, i32, ptr, i32, i32, i32, i64, i32, ptr }
%struct.connListener = type { [16 x i32], i32, ptr, i32, i32, ptr, ptr }
%struct.pause_event = type { i32, i64 }
%struct.malloc_stats = type { i64, i64, i64, i64, i64, i64, i64, i64, i64, i64, i64 }
%struct.anon.6 = type { i64, i64, [16 x i64], i32 }
%struct.durationStats = type { i64, i64, i64 }
%struct.clientBufferLimitsConfig = type { i64, i64, i64 }
%struct.redisOpArray = type { ptr, i32, i32 }
%struct.replDataBuf = type { ptr, i64, i64, i64, i64 }
%struct.aclInfo = type { i64, i64, i64, i64 }
%struct.redisTLSContextConfig = type { ptr, ptr, ptr, ptr, ptr, ptr, ptr, ptr, ptr, ptr, ptr, ptr, i32, i32, i32, i32 }
%struct.sharedObjectsStruct = type { ptr, ptr, ptr, ptr, ptr, ptr, ptr, ptr, [4 x ptr], [4 x ptr], [4 x ptr], [4 x ptr], ptr, ptr, ptr, ptr, ptr, ptr, ptr, ptr, ptr, ptr, ptr, ptr, ptr, ptr, ptr, ptr, ptr, ptr, ptr, ptr, ptr, ptr, ptr, ptr, ptr, ptr, ptr, ptr, ptr, ptr, ptr, ptr, ptr, ptr, ptr, ptr, ptr, ptr, ptr, ptr, ptr, ptr, ptr, ptr, ptr, ptr, ptr, ptr, ptr, ptr, ptr, ptr, ptr, ptr, ptr, ptr, ptr, ptr, ptr, ptr, ptr, ptr, ptr, ptr, ptr, ptr, ptr, ptr, ptr, ptr, ptr, ptr, ptr, ptr, ptr, ptr, [10 x ptr], [10000 x ptr], [32 x ptr], [32 x ptr], [32 x ptr], [32 x ptr], ptr, ptr }
%struct.sigaction = type { %union.anon.5, %struct.__sigset_t, i32, ptr }
%union.anon.5 = type { ptr }
%struct.__sigset_t = type { [16 x i64] }
%struct.timeval = type { i64, i64 }

@rdbCheckMode = dso_local global i32 0, align 4
@.str.36 = private unnamed_addr constant [22 x i8] c"[info] %lu keys read\0A\00", align 1
@rdbstate = dso_local global %struct.anon zeroinitializer, align 8
@.str.37 = private unnamed_addr constant [20 x i8] c"[info] %lu expires\0A\00", align 1
@.str.38 = private unnamed_addr constant [28 x i8] c"[info] %lu already expired\0A\00", align 1
@.str.39 = private unnamed_addr constant [23 x i8] c"[info] %lu subexpires\0A\00", align 1
@server = external global %struct.redisServer, align 8
@stderr = external global ptr, align 8
@.str.62 = private unnamed_addr constant [27 x i8] c"Usage: %s <rdb-file-name>\0A\00", align 1
@.str.63 = private unnamed_addr constant [3 x i8] c"-v\00", align 1
@.str.64 = private unnamed_addr constant [10 x i8] c"--version\00", align 1
@.str.65 = private unnamed_addr constant [20 x i8] c"redis-check-rdb %s\0A\00", align 1
@shared = external global %struct.sharedObjectsStruct, align 8
@.str.66 = private unnamed_addr constant [21 x i8] c"Checking RDB file %s\00", align 1
@.str.67 = private unnamed_addr constant [22 x i8] c"\\o/ RDB looks OK! \\o/\00", align 1

; Function Attrs: nounwind uwtable
define dso_local void @rdbShowGenericInfo() #0 {
  %1 = load i64, ptr getelementptr inbounds nuw (%struct.anon, ptr @rdbstate, i32 0, i32 3), align 8, !tbaa !5
  %2 = call i32 (ptr, ...) @printf(ptr noundef @.str.36, i64 noundef %1)
  %3 = load i64, ptr getelementptr inbounds nuw (%struct.anon, ptr @rdbstate, i32 0, i32 4), align 8, !tbaa !14
  %4 = call i32 (ptr, ...) @printf(ptr noundef @.str.37, i64 noundef %3)
  %5 = load i64, ptr getelementptr inbounds nuw (%struct.anon, ptr @rdbstate, i32 0, i32 5), align 8, !tbaa !15
  %6 = call i32 (ptr, ...) @printf(ptr noundef @.str.38, i64 noundef %5)
  %7 = load i64, ptr getelementptr inbounds nuw (%struct.anon, ptr @rdbstate, i32 0, i32 6), align 8, !tbaa !16
  %8 = call i32 (ptr, ...) @printf(ptr noundef @.str.39, i64 noundef %7)
  ret void
}

; Function Attrs: nounwind uwtable
define dso_local void @rdbCheckSetupSignals() #0 {
  %1 = alloca %struct.sigaction, align 8
  call void @llvm.lifetime.start.p0(i64 152, ptr %1) #9
  %2 = getelementptr inbounds nuw %struct.sigaction, ptr %1, i32 0, i32 1
  %3 = call i32 @sigemptyset(ptr noundef %2) #9
  %4 = getelementptr inbounds nuw %struct.sigaction, ptr %1, i32 0, i32 2
  store i32 -1073741820, ptr %4, align 8, !tbaa !30
  %5 = getelementptr inbounds nuw %struct.sigaction, ptr %1, i32 0, i32 0
  store ptr @rdbCheckHandleCrash, ptr %5, align 8, !tbaa !33
  %6 = call i32 @sigaction(i32 noundef 11, ptr noundef %1, ptr noundef null) #9
  %7 = call i32 @sigaction(i32 noundef 7, ptr noundef %1, ptr noundef null) #9
  %8 = call i32 @sigaction(i32 noundef 8, ptr noundef %1, ptr noundef null) #9
  %9 = call i32 @sigaction(i32 noundef 4, ptr noundef %1, ptr noundef null) #9
  %10 = call i32 @sigaction(i32 noundef 6, ptr noundef %1, ptr noundef null) #9
  call void @llvm.lifetime.end.p0(i64 152, ptr %1) #9
  ret void
}

; Function Attrs: nounwind uwtable
define dso_local i32 @redis_check_rdb_main(i32 noundef %0, ptr noundef %1, ptr noundef %2) #0 {
  %4 = alloca i32, align 4
  %5 = alloca ptr, align 8
  %6 = alloca ptr, align 8
  %7 = alloca %struct.timeval, align 8
  %8 = alloca ptr, align 8
  %9 = alloca i32, align 4
  store i32 %0, ptr %4, align 4, !tbaa !28
  store ptr %1, ptr %5, align 8, !tbaa !77
  store ptr %2, ptr %6, align 8, !tbaa !34
  call void @llvm.lifetime.start.p0(i64 16, ptr %7) #9
  %10 = load i32, ptr %4, align 4, !tbaa !28
  %11 = icmp ne i32 %10, 2
  br i1 %11, label %12, label %21

12:                                               ; preds = %3
  %13 = load ptr, ptr %6, align 8, !tbaa !34
  %14 = icmp eq ptr %13, null
  br i1 %14, label %15, label %21

15:                                               ; preds = %12
  %16 = load ptr, ptr @stderr, align 8, !tbaa !34
  %17 = load ptr, ptr %5, align 8, !tbaa !77
  %18 = getelementptr inbounds ptr, ptr %17, i64 0
  %19 = load ptr, ptr %18, align 8, !tbaa !17
  %20 = call i32 (ptr, ptr, ...) @fprintf(ptr noundef %16, ptr noundef @.str.62, ptr noundef %19) #9
  call void @exit(i32 noundef 1) #10
  unreachable

21:                                               ; preds = %12, %3
  %22 = load ptr, ptr %5, align 8, !tbaa !77
  %23 = getelementptr inbounds ptr, ptr %22, i64 1
  %24 = load ptr, ptr %23, align 8, !tbaa !17
  %25 = call i32 @strcmp(ptr noundef %24, ptr noundef @.str.63) #11
  %26 = icmp ne i32 %25, 0
  br i1 %26, label %27, label %33

27:                                               ; preds = %21
  %28 = load ptr, ptr %5, align 8, !tbaa !77
  %29 = getelementptr inbounds ptr, ptr %28, i64 1
  %30 = load ptr, ptr %29, align 8, !tbaa !17
  %31 = call i32 @strcmp(ptr noundef %30, ptr noundef @.str.64) #11
  %32 = icmp ne i32 %31, 0
  br i1 %32, label %38, label %33

33:                                               ; preds = %27, %21
  call void @llvm.lifetime.start.p0(i64 8, ptr %8) #9
  %34 = call ptr @getVersion()
  store ptr %34, ptr %8, align 8, !tbaa !17
  %35 = load ptr, ptr %8, align 8, !tbaa !17
  %36 = call i32 (ptr, ...) @printf(ptr noundef @.str.65, ptr noundef %35)
  %37 = load ptr, ptr %8, align 8, !tbaa !17
  call void @sdsfree(ptr noundef %37)
  call void @exit(i32 noundef 0) #10
  unreachable

38:                                               ; preds = %27
  br label %39

39:                                               ; preds = %38
  %40 = call i32 @gettimeofday(ptr noundef %7, ptr noundef null) #9
  %41 = getelementptr inbounds nuw %struct.timeval, ptr %7, i32 0, i32 0
  %42 = load i64, ptr %41, align 8, !tbaa !78
  %43 = mul nsw i64 %42, 1000000
  %44 = getelementptr inbounds nuw %struct.timeval, ptr %7, i32 0, i32 1
  %45 = load i64, ptr %44, align 8, !tbaa !80
  %46 = add nsw i64 %43, %45
  %47 = call i32 @getpid() #9
  %48 = sext i32 %47 to i64
  %49 = xor i64 %46, %48
  call void @init_genrand64(i64 noundef %49)
  %50 = load ptr, ptr getelementptr inbounds nuw (%struct.sharedObjectsStruct, ptr @shared, i32 0, i32 89), align 8, !tbaa !43
  %51 = icmp eq ptr %50, null
  br i1 %51, label %52, label %53

52:                                               ; preds = %39
  call void @createSharedObjects()
  br label %53

53:                                               ; preds = %52, %39
  store i64 0, ptr getelementptr inbounds nuw (%struct.redisServer, ptr @server, i32 0, i32 90), align 8, !tbaa !81
  store i32 1, ptr getelementptr inbounds nuw (%struct.redisServer, ptr @server, i32 0, i32 167), align 8, !tbaa !82
  store i32 1, ptr @rdbCheckMode, align 4, !tbaa !28
  %54 = load ptr, ptr %5, align 8, !tbaa !77
  %55 = getelementptr inbounds ptr, ptr %54, i64 1
  %56 = load ptr, ptr %55, align 8, !tbaa !17
  call void (ptr, ...) @rdbCheckInfo(ptr noundef @.str.66, ptr noundef %56)
  call void @rdbCheckSetupSignals()
  call void @llvm.lifetime.start.p0(i64 4, ptr %9) #9
  %57 = load ptr, ptr %5, align 8, !tbaa !77
  %58 = getelementptr inbounds ptr, ptr %57, i64 1
  %59 = load ptr, ptr %58, align 8, !tbaa !17
  %60 = load ptr, ptr %6, align 8, !tbaa !34
  %61 = call i32 @redis_check_rdb(ptr noundef %59, ptr noundef %60)
  store i32 %61, ptr %9, align 4, !tbaa !28
  %62 = load i32, ptr %9, align 4, !tbaa !28
  %63 = icmp eq i32 %62, 0
  br i1 %63, label %64, label %65

64:                                               ; preds = %53
  call void (ptr, ...) @rdbCheckInfo(ptr noundef @.str.67)
  call void @rdbShowGenericInfo()
  br label %65

65:                                               ; preds = %64, %53
  %66 = load ptr, ptr %6, align 8, !tbaa !34
  %67 = icmp ne ptr %66, null
  br i1 %67, label %68, label %72

68:                                               ; preds = %65
  %69 = load i32, ptr %9, align 4, !tbaa !28
  %70 = icmp eq i32 %69, 0
  %71 = select i1 %70, i32 0, i32 -1
  call void @llvm.lifetime.end.p0(i64 4, ptr %9) #9
  call void @llvm.lifetime.end.p0(i64 16, ptr %7) #9
  ret i32 %71

72:                                               ; preds = %65
  %73 = load i32, ptr %9, align 4, !tbaa !28
  call void @exit(i32 noundef %73) #10
  unreachable
}