; Function Attrs: nounwind uwtable
define dso_local range(i32 -1, 1) i32 @redis_check_rdb_main(i32 noundef %0, ptr noundef readonly captures(none) %1, ptr noundef %2) local_unnamed_addr #6 {
  %4 = alloca %struct.sigaction, align 8
  %5 = alloca %struct.timeval, align 8
  call void @llvm.lifetime.start.p0(i64 16, ptr nonnull %5) #15
  %6 = icmp ne i32 %0, 2
  %7 = icmp eq ptr %2, null
  %or.cond = and i1 %6, %7
  br i1 %or.cond, label %8, label %sub_0

8:                                                ; preds = %3
  %9 = load ptr, ptr @stderr, align 8, !tbaa !38
  %10 = load ptr, ptr %1, align 8, !tbaa !21
  %11 = tail call i32 (ptr, ptr, ...) @fprintf(ptr noundef %9, ptr noundef nonnull @.str.62, ptr noundef %10) #17
  tail call void @exit(i32 noundef 1) #16
  unreachable

sub_0:                                            ; preds = %3
  %12 = getelementptr inbounds nuw i8, ptr %1, i64 8
  %13 = load ptr, ptr %12, align 8, !tbaa !21
  %14 = load i8, ptr %13, align 1
  %.not16 = icmp eq i8 %14, 45
  br i1 %.not16, label %sub_1, label %.tail.thread

sub_1:                                            ; preds = %sub_0
  %15 = getelementptr inbounds nuw i8, ptr %13, i64 1
  %16 = load i8, ptr %15, align 1
  %.not17 = icmp eq i8 %16, 118
  br i1 %.not17, label %.tail, label %.tail.thread

.tail:                                            ; preds = %sub_1
  %17 = getelementptr inbounds nuw i8, ptr %13, i64 2
  %18 = load i8, ptr %17, align 1
  %19 = icmp eq i8 %18, 0
  br i1 %19, label %21, label %.tail.thread

.tail.thread:                                     ; preds = %sub_1, %sub_0, %.tail
  %20 = tail call i32 @strcmp(ptr noundef nonnull dereferenceable(1) %13, ptr noundef nonnull dereferenceable(10) @.str.64) #18
  %.not14 = icmp eq i32 %20, 0
  br i1 %.not14, label %21, label %24

21:                                               ; preds = %.tail.thread, %.tail
  %22 = tail call ptr @getVersion() #15
  %23 = tail call i32 (ptr, ...) @printf(ptr noundef nonnull dereferenceable(1) @.str.65, ptr noundef %22)
  tail call void @sdsfree(ptr noundef %22) #15
  tail call void @exit(i32 noundef 0) #19
  unreachable

24:                                               ; preds = %.tail.thread
  %25 = call i32 @gettimeofday(ptr noundef nonnull %5, ptr noundef null) #15
  %26 = load i64, ptr %5, align 8, !tbaa !40
  %27 = mul nsw i64 %26, 1000000
  %28 = getelementptr inbounds nuw i8, ptr %5, i64 8
  %29 = load i64, ptr %28, align 8, !tbaa !42
  %30 = add nsw i64 %27, %29
  %31 = tail call i32 @getpid() #15
  %32 = sext i32 %31 to i64
  %33 = xor i64 %30, %32
  tail call void @init_genrand64(i64 noundef %33) #15
  %34 = load ptr, ptr getelementptr inbounds nuw (i8, ptr @shared, i64 880), align 8, !tbaa !43
  %35 = icmp eq ptr %34, null
  br i1 %35, label %36, label %37

36:                                               ; preds = %24
  tail call void @createSharedObjects() #15
  br label %37

37:                                               ; preds = %36, %24
  store i64 0, ptr getelementptr inbounds nuw (i8, ptr @server, i64 2456), align 8, !tbaa !44
  store i32 1, ptr getelementptr inbounds nuw (i8, ptr @server, i64 6320), align 8, !tbaa !71
  store i32 1, ptr @rdbCheckMode, align 4, !tbaa !72
  %38 = load ptr, ptr %12, align 8, !tbaa !21
  tail call void (ptr, ...) @rdbCheckInfo(ptr noundef nonnull @.str.66, ptr noundef %38)
  call void @llvm.lifetime.start.p0(i64 152, ptr nonnull %4) #15
  %39 = getelementptr inbounds nuw i8, ptr %4, i64 8
  %40 = call i32 @sigemptyset(ptr noundef nonnull %39) #15
  %41 = getelementptr inbounds nuw i8, ptr %4, i64 136
  store i32 -1073741820, ptr %41, align 8, !tbaa !28
  store ptr @rdbCheckHandleCrash, ptr %4, align 8, !tbaa !31
  %42 = call i32 @sigaction(i32 noundef 11, ptr noundef nonnull %4, ptr noundef null) #15
  %43 = call i32 @sigaction(i32 noundef 7, ptr noundef nonnull %4, ptr noundef null) #15
  %44 = call i32 @sigaction(i32 noundef 8, ptr noundef nonnull %4, ptr noundef null) #15
  %45 = call i32 @sigaction(i32 noundef 4, ptr noundef nonnull %4, ptr noundef null) #15
  %46 = call i32 @sigaction(i32 noundef 6, ptr noundef nonnull %4, ptr noundef null) #15
  call void @llvm.lifetime.end.p0(i64 152, ptr nonnull %4) #15
  %47 = load ptr, ptr %12, align 8, !tbaa !21
  %48 = call i32 @redis_check_rdb(ptr noundef %47, ptr noundef %2)
  %49 = icmp ne i32 %48, 0
  br i1 %49, label %59, label %50

50:                                               ; preds = %37
  call void (ptr, ...) @rdbCheckInfo(ptr noundef nonnull @.str.67)
  %51 = load i64, ptr getelementptr inbounds nuw (i8, ptr @rdbstate, i64 24), align 8, !tbaa !5
  %52 = call i32 (ptr, ...) @printf(ptr noundef nonnull dereferenceable(1) @.str.36, i64 noundef %51)
  %53 = load i64, ptr getelementptr inbounds nuw (i8, ptr @rdbstate, i64 32), align 8, !tbaa !14
  %54 = call i32 (ptr, ...) @printf(ptr noundef nonnull dereferenceable(1) @.str.37, i64 noundef %53)
  %55 = load i64, ptr getelementptr inbounds nuw (i8, ptr @rdbstate, i64 40), align 8, !tbaa !15
  %56 = call i32 (ptr, ...) @printf(ptr noundef nonnull dereferenceable(1) @.str.38, i64 noundef %55)
  %57 = load i64, ptr getelementptr inbounds nuw (i8, ptr @rdbstate, i64 48), align 8, !tbaa !16
  %58 = call i32 (ptr, ...) @printf(ptr noundef nonnull dereferenceable(1) @.str.39, i64 noundef %57)
  br label %59

59:                                               ; preds = %50, %37
  br i1 %7, label %62, label %60

60:                                               ; preds = %59
  %61 = sext i1 %49 to i32
  call void @llvm.lifetime.end.p0(i64 16, ptr nonnull %5) #15
  ret i32 %61

62:                                               ; preds = %59
  call void @exit(i32 noundef %48) #19
  unreachable
}